target datalayout = "e-m:e-p270:32:32-p271:32:32-p272:64:64-i64:64-i128:128-f80:128-n8:16:32:64-S128"
target triple = "x86_64-pc-linux-gnu"

@s_Truths6 = internal global [6 x i64] [i64 -6148914691236517206, i64 -3689348814741910324, i64 -1085102592571150096, i64 -71777214294589696, i64 -281470681808896, i64 -4294967296], align 16

; Function Attrs: inlinehint nounwind uwtable
define internal i64 @Abc_Tt6Flip(i64 noundef %0, i32 noundef %1) #4 {
  %3 = alloca i64, align 8
  %4 = alloca i32, align 4
  store i64 %0, ptr %3, align 8, !tbaa !7
  store i32 %1, ptr %4, align 4, !tbaa !3
  %5 = load i64, ptr %3, align 8, !tbaa !7
  %6 = load i32, ptr %4, align 4, !tbaa !3
  %7 = shl i32 1, %6
  %8 = zext i32 %7 to i64
  %9 = shl i64 %5, %8
  %10 = load i32, ptr %4, align 4, !tbaa !3
  %11 = sext i32 %10 to i64
  %12 = getelementptr inbounds [6 x i64], ptr @s_Truths6, i64 0, i64 %11
  %13 = load i64, ptr %12, align 8, !tbaa !7
  %14 = and i64 %9, %13
  %15 = load i64, ptr %3, align 8, !tbaa !7
  %16 = load i32, ptr %4, align 4, !tbaa !3
  %17 = sext i32 %16 to i64
  %18 = getelementptr inbounds [6 x i64], ptr @s_Truths6, i64 0, i64 %17
  %19 = load i64, ptr %18, align 8, !tbaa !7
  %20 = and i64 %15, %19
  %21 = load i32, ptr %4, align 4, !tbaa !3
  %22 = shl i32 1, %21
  %23 = zext i32 %22 to i64
  %24 = lshr i64 %20, %23
  %25 = or i64 %14, %24
  store i64 %25, ptr %3, align 8, !tbaa !7
  ret i64 %25
}

; Function Attrs: nounwind uwtable
define i32 @Dau_CountCompl1(i64 noundef %0, i32 noundef %1, i32 noundef %2) #0 {
  %4 = alloca i32, align 4
  %5 = alloca i64, align 8
  %6 = alloca i32, align 4
  %7 = alloca i32, align 4
  %8 = alloca i64, align 8
  %9 = alloca i32, align 4
  %10 = alloca i32, align 4
  store i64 %0, ptr %5, align 8, !tbaa !7
  store i32 %1, ptr %6, align 4, !tbaa !3
  store i32 %2, ptr %7, align 4, !tbaa !3
  call void @llvm.lifetime.start.p0(i64 8, ptr %8) #12
  %11 = load i64, ptr %5, align 8, !tbaa !7
  %12 = load i32, ptr %6, align 4, !tbaa !3
  %13 = call i64 @Abc_Tt6Flip(i64 noundef %11, i32 noundef %12)
  store i64 %13, ptr %8, align 8, !tbaa !7
  call void @llvm.lifetime.start.p0(i64 4, ptr %9) #12
  %14 = load i64, ptr %8, align 8, !tbaa !7
  %15 = load i64, ptr %5, align 8, !tbaa !7
  %16 = xor i64 %15, -1
  %17 = icmp eq i64 %14, %16
  br i1 %17, label %18, label %19

18:                                               ; preds = %3
  store i32 1, ptr %4, align 4
  store i32 1, ptr %10, align 4
  br label %41

19:                                               ; preds = %3
  store i32 0, ptr %9, align 4, !tbaa !3
  br label %20

20:                                               ; preds = %37, %19
  %21 = load i32, ptr %9, align 4, !tbaa !3
  %22 = load i32, ptr %7, align 4, !tbaa !3
  %23 = icmp slt i32 %21, %22
  br i1 %23, label %24, label %40

24:                                               ; preds = %20
  %25 = load i32, ptr %9, align 4, !tbaa !3
  %26 = load i32, ptr %6, align 4, !tbaa !3
  %27 = icmp ne i32 %25, %26
  br i1 %27, label %28, label %36

28:                                               ; preds = %24
  %29 = load i64, ptr %8, align 8, !tbaa !7
  %30 = load i64, ptr %5, align 8, !tbaa !7
  %31 = load i32, ptr %9, align 4, !tbaa !3
  %32 = call i64 @Abc_Tt6Flip(i64 noundef %30, i32 noundef %31)
  %33 = icmp eq i64 %29, %32
  br i1 %33, label %34, label %35

34:                                               ; preds = %28
  store i32 1, ptr %4, align 4
  store i32 1, ptr %10, align 4
  br label %41

35:                                               ; preds = %28
  br label %36

36:                                               ; preds = %35, %24
  br label %37

37:                                               ; preds = %36
  %38 = load i32, ptr %9, align 4, !tbaa !3
  %39 = add nsw i32 %38, 1
  store i32 %39, ptr %9, align 4, !tbaa !3
  br label %20, !llvm.loop !51

40:                                               ; preds = %20
  store i32 0, ptr %4, align 4
  store i32 1, ptr %10, align 4
  br label %41

41:                                               ; preds = %40, %34, %18
  call void @llvm.lifetime.end.p0(i64 4, ptr %9) #12
  call void @llvm.lifetime.end.p0(i64 8, ptr %8) #12
  %42 = load i32, ptr %4, align 4
  ret i32 %42
}