; Function Attrs: nofree norecurse nosync nounwind memory(none) uwtable
define range(i32 0, 2) i32 @Dau_CountCompl1(i64 noundef %0, i32 noundef %1, i32 noundef %2) local_unnamed_addr #7 {
  %4 = shl nuw i32 1, %1
  %5 = zext i32 %4 to i64
  %6 = shl i64 %0, %5
  %7 = sext i32 %1 to i64
  %8 = getelementptr inbounds [6 x i64], ptr @s_Truths6, i64 0, i64 %7
  %9 = load i64, ptr %8, align 8, !tbaa !18
  %10 = and i64 %9, %6
  %11 = and i64 %9, %0
  %12 = lshr i64 %11, %5
  %13 = or i64 %12, %10
  %14 = xor i64 %13, %0
  %15 = icmp eq i64 %14, -1
  br i1 %15, label %.loopexit, label %.preheader

.preheader:                                       ; preds = %3
  %16 = icmp sgt i32 %2, 0
  br i1 %16, label %.lr.ph.preheader, label %.loopexit

.lr.ph.preheader:                                 ; preds = %.preheader
  %17 = zext i32 %1 to i64
  %wide.trip.count = zext nneg i32 %2 to i64
  br label %.lr.ph

.lr.ph:                                           ; preds = %.lr.ph.preheader, %30
  %indvars.iv = phi i64 [ 0, %.lr.ph.preheader ], [ %indvars.iv.next, %30 ]
  %.not = icmp eq i64 %indvars.iv, %17
  br i1 %.not, label %30, label %18

18:                                               ; preds = %.lr.ph
  %19 = trunc nuw nsw i64 %indvars.iv to i32
  %20 = shl nuw i32 1, %19
  %21 = zext i32 %20 to i64
  %22 = shl i64 %0, %21
  %23 = getelementptr inbounds nuw [6 x i64], ptr @s_Truths6, i64 0, i64 %indvars.iv
  %24 = load i64, ptr %23, align 8, !tbaa !18
  %25 = and i64 %24, %22
  %26 = and i64 %24, %0
  %27 = lshr i64 %26, %21
  %28 = or i64 %27, %25
  %29 = icmp eq i64 %13, %28
  br i1 %29, label %.loopexit, label %30

30:                                               ; preds = %.lr.ph, %18
  %indvars.iv.next = add nuw nsw i64 %indvars.iv, 1
  %exitcond.not = icmp eq i64 %indvars.iv.next, %wide.trip.count
  br i1 %exitcond.not, label %.loopexit, label %.lr.ph, !llvm.loop !54

.loopexit:                                        ; preds = %18, %30, %.preheader, %3
  %.013 = phi i32 [ 1, %3 ], [ 0, %.preheader ], [ 1, %18 ], [ 0, %30 ]
  ret i32 %.013
}